target datalayout = "e-m:e-p270:32:32-p271:32:32-p272:64:64-i64:64-i128:128-f80:128-n8:16:32:64-S128"
target triple = "x86_64-pc-linux-gnu"

%struct.s_p_hashtbl = type { %struct.re_pattern_buffer, [173 x ptr] }
%struct.re_pattern_buffer = type { ptr, i64, i64, i64, ptr, ptr, i64, i8 }
%struct.regmatch_t = type { i32, i32 }

@.str.34 = private unnamed_addr constant [12 x i8] c"regexec(%s)\00", align 1
@.str.35 = private unnamed_addr constant [1 x i8] zeroinitializer, align 1

; Function Attrs: nounwind uwtable
define internal i32 @_keyvalue_regex(ptr noundef %0, ptr noundef %1, ptr noundef %2, ptr noundef %3, ptr noundef %4, ptr noundef %5) #0 {
  %7 = alloca i32, align 4
  %8 = alloca ptr, align 8
  %9 = alloca ptr, align 8
  %10 = alloca ptr, align 8
  %11 = alloca ptr, align 8
  %12 = alloca ptr, align 8
  %13 = alloca ptr, align 8
  %14 = alloca i64, align 8
  %15 = alloca [8 x %struct.regmatch_t], align 16
  %16 = alloca i8, align 1
  %17 = alloca i32, align 4
  %18 = alloca i32, align 4
  store ptr %0, ptr %8, align 8
  store ptr %1, ptr %9, align 8
  store ptr %2, ptr %10, align 8
  store ptr %3, ptr %11, align 8
  store ptr %4, ptr %12, align 8
  store ptr %5, ptr %13, align 8
  call void @llvm.lifetime.start.p0(i64 8, ptr %14) #9
  store i64 8, ptr %14, align 8
  call void @llvm.lifetime.start.p0(i64 64, ptr %15) #9
  call void @llvm.lifetime.start.p0(i64 1, ptr %16) #9
  call void @llvm.lifetime.start.p0(i64 4, ptr %17) #9
  %19 = load ptr, ptr %10, align 8
  store ptr null, ptr %19, align 8
  %20 = load ptr, ptr %11, align 8
  store ptr null, ptr %20, align 8
  %21 = load ptr, ptr %9, align 8
  %22 = load ptr, ptr %12, align 8
  store ptr %21, ptr %22, align 8
  %23 = load ptr, ptr %13, align 8
  store i32 0, ptr %23, align 4
  %24 = getelementptr inbounds [8 x %struct.regmatch_t], ptr %15, i64 0, i64 0
  %25 = load i64, ptr %14, align 8
  %26 = mul i64 8, %25
  call void @llvm.memset.p0.i64(ptr align 16 %24, i8 0, i64 %26, i1 false)
  %27 = load ptr, ptr %8, align 8
  %28 = getelementptr inbounds nuw %struct.s_p_hashtbl, ptr %27, i32 0, i32 0
  %29 = load ptr, ptr %9, align 8
  %30 = load i64, ptr %14, align 8
  %31 = getelementptr inbounds [8 x %struct.regmatch_t], ptr %15, i64 0, i64 0
  %32 = call i32 @regexec(ptr noundef %28, ptr noundef %29, i64 noundef %30, ptr noundef %31, i32 noundef 0)
  store i32 %32, ptr %17, align 4
  %33 = icmp ne i32 %32, 0
  br i1 %33, label %34, label %43

34:                                               ; preds = %6
  %35 = load i32, ptr %17, align 4
  %36 = icmp ne i32 %35, 1
  br i1 %36, label %37, label %42

37:                                               ; preds = %34
  %38 = load i32, ptr %17, align 4
  %39 = load ptr, ptr %8, align 8
  %40 = getelementptr inbounds nuw %struct.s_p_hashtbl, ptr %39, i32 0, i32 0
  %41 = load ptr, ptr %9, align 8
  call void (i32, ptr, ptr, ...) @dump_regex_error(i32 noundef %38, ptr noundef %40, ptr noundef @.str.34, ptr noundef %41)
  br label %42

42:                                               ; preds = %37, %34
  store i32 -1, ptr %7, align 4
  store i32 1, ptr %18, align 4
  br label %163

43:                                               ; preds = %6
  %44 = load ptr, ptr %9, align 8
  %45 = getelementptr inbounds [8 x %struct.regmatch_t], ptr %15, i64 0, i64 1
  %46 = getelementptr inbounds nuw %struct.regmatch_t, ptr %45, i32 0, i32 0
  %47 = load i32, ptr %46, align 8
  %48 = sext i32 %47 to i64
  %49 = getelementptr inbounds i8, ptr %44, i64 %48
  %50 = getelementptr inbounds [8 x %struct.regmatch_t], ptr %15, i64 0, i64 1
  %51 = getelementptr inbounds nuw %struct.regmatch_t, ptr %50, i32 0, i32 1
  %52 = load i32, ptr %51, align 4
  %53 = getelementptr inbounds [8 x %struct.regmatch_t], ptr %15, i64 0, i64 1
  %54 = getelementptr inbounds nuw %struct.regmatch_t, ptr %53, i32 0, i32 0
  %55 = load i32, ptr %54, align 8
  %56 = sub nsw i32 %52, %55
  %57 = sext i32 %56 to i64
  %58 = call ptr @xstrndup(ptr noundef %49, i64 noundef %57)
  %59 = load ptr, ptr %10, align 8
  store ptr %58, ptr %59, align 8
  %60 = getelementptr inbounds [8 x %struct.regmatch_t], ptr %15, i64 0, i64 2
  %61 = getelementptr inbounds nuw %struct.regmatch_t, ptr %60, i32 0, i32 0
  %62 = load i32, ptr %61, align 16
  %63 = icmp ne i32 %62, -1
  br i1 %63, label %64, label %107

64:                                               ; preds = %43
  %65 = getelementptr inbounds [8 x %struct.regmatch_t], ptr %15, i64 0, i64 2
  %66 = getelementptr inbounds nuw %struct.regmatch_t, ptr %65, i32 0, i32 0
  %67 = load i32, ptr %66, align 16
  %68 = getelementptr inbounds [8 x %struct.regmatch_t], ptr %15, i64 0, i64 2
  %69 = getelementptr inbounds nuw %struct.regmatch_t, ptr %68, i32 0, i32 1
  %70 = load i32, ptr %69, align 4
  %71 = icmp ne i32 %67, %70
  br i1 %71, label %72, label %107

72:                                               ; preds = %64
  %73 = load ptr, ptr %9, align 8
  %74 = getelementptr inbounds [8 x %struct.regmatch_t], ptr %15, i64 0, i64 2
  %75 = getelementptr inbounds nuw %struct.regmatch_t, ptr %74, i32 0, i32 0
  %76 = load i32, ptr %75, align 16
  %77 = sext i32 %76 to i64
  %78 = getelementptr inbounds i8, ptr %73, i64 %77
  %79 = load i8, ptr %78, align 1
  store i8 %79, ptr %16, align 1
  %80 = load i8, ptr %16, align 1
  %81 = sext i8 %80 to i32
  %82 = icmp eq i32 %81, 43
  br i1 %82, label %83, label %85

83:                                               ; preds = %72
  %84 = load ptr, ptr %13, align 8
  store i32 1, ptr %84, align 4
  br label %106

85:                                               ; preds = %72
  %86 = load i8, ptr %16, align 1
  %87 = sext i8 %86 to i32
  %88 = icmp eq i32 %87, 45
  br i1 %88, label %89, label %91

89:                                               ; preds = %85
  %90 = load ptr, ptr %13, align 8
  store i32 2, ptr %90, align 4
  br label %105

91:                                               ; preds = %85
  %92 = load i8, ptr %16, align 1
  %93 = sext i8 %92 to i32
  %94 = icmp eq i32 %93, 42
  br i1 %94, label %95, label %97

95:                                               ; preds = %91
  %96 = load ptr, ptr %13, align 8
  store i32 3, ptr %96, align 4
  br label %104

97:                                               ; preds = %91
  %98 = load i8, ptr %16, align 1
  %99 = sext i8 %98 to i32
  %100 = icmp eq i32 %99, 47
  br i1 %100, label %101, label %103

101:                                              ; preds = %97
  %102 = load ptr, ptr %13, align 8
  store i32 4, ptr %102, align 4
  br label %103

103:                                              ; preds = %101, %97
  br label %104

104:                                              ; preds = %103, %95
  br label %105

105:                                              ; preds = %104, %89
  br label %106

106:                                              ; preds = %105, %83
  br label %107

107:                                              ; preds = %106, %64, %43
  %108 = getelementptr inbounds [8 x %struct.regmatch_t], ptr %15, i64 0, i64 5
  %109 = getelementptr inbounds nuw %struct.regmatch_t, ptr %108, i32 0, i32 0
  %110 = load i32, ptr %109, align 8
  %111 = icmp ne i32 %110, -1
  br i1 %111, label %112, label %129

112:                                              ; preds = %107
  %113 = load ptr, ptr %9, align 8
  %114 = getelementptr inbounds [8 x %struct.regmatch_t], ptr %15, i64 0, i64 5
  %115 = getelementptr inbounds nuw %struct.regmatch_t, ptr %114, i32 0, i32 0
  %116 = load i32, ptr %115, align 8
  %117 = sext i32 %116 to i64
  %118 = getelementptr inbounds i8, ptr %113, i64 %117
  %119 = getelementptr inbounds [8 x %struct.regmatch_t], ptr %15, i64 0, i64 5
  %120 = getelementptr inbounds nuw %struct.regmatch_t, ptr %119, i32 0, i32 1
  %121 = load i32, ptr %120, align 4
  %122 = getelementptr inbounds [8 x %struct.regmatch_t], ptr %15, i64 0, i64 5
  %123 = getelementptr inbounds nuw %struct.regmatch_t, ptr %122, i32 0, i32 0
  %124 = load i32, ptr %123, align 8
  %125 = sub nsw i32 %121, %124
  %126 = sext i32 %125 to i64
  %127 = call ptr @xstrndup(ptr noundef %118, i64 noundef %126)
  %128 = load ptr, ptr %11, align 8
  store ptr %127, ptr %128, align 8
  br label %155

129:                                              ; preds = %107
  %130 = getelementptr inbounds [8 x %struct.regmatch_t], ptr %15, i64 0, i64 6
  %131 = getelementptr inbounds nuw %struct.regmatch_t, ptr %130, i32 0, i32 0
  %132 = load i32, ptr %131, align 16
  %133 = icmp ne i32 %132, -1
  br i1 %133, label %134, label %151

134:                                              ; preds = %129
  %135 = load ptr, ptr %9, align 8
  %136 = getelementptr inbounds [8 x %struct.regmatch_t], ptr %15, i64 0, i64 6
  %137 = getelementptr inbounds nuw %struct.regmatch_t, ptr %136, i32 0, i32 0
  %138 = load i32, ptr %137, align 16
  %139 = sext i32 %138 to i64
  %140 = getelementptr inbounds i8, ptr %135, i64 %139
  %141 = getelementptr inbounds [8 x %struct.regmatch_t], ptr %15, i64 0, i64 6
  %142 = getelementptr inbounds nuw %struct.regmatch_t, ptr %141, i32 0, i32 1
  %143 = load i32, ptr %142, align 4
  %144 = getelementptr inbounds [8 x %struct.regmatch_t], ptr %15, i64 0, i64 6
  %145 = getelementptr inbounds nuw %struct.regmatch_t, ptr %144, i32 0, i32 0
  %146 = load i32, ptr %145, align 16
  %147 = sub nsw i32 %143, %146
  %148 = sext i32 %147 to i64
  %149 = call ptr @xstrndup(ptr noundef %140, i64 noundef %148)
  %150 = load ptr, ptr %11, align 8
  store ptr %149, ptr %150, align 8
  br label %154

151:                                              ; preds = %129
  %152 = call ptr @xstrdup(ptr noundef @.str.35)
  %153 = load ptr, ptr %11, align 8
  store ptr %152, ptr %153, align 8
  br label %154

154:                                              ; preds = %151, %134
  br label %155

155:                                              ; preds = %154, %112
  %156 = load ptr, ptr %9, align 8
  %157 = getelementptr inbounds [8 x %struct.regmatch_t], ptr %15, i64 0, i64 3
  %158 = getelementptr inbounds nuw %struct.regmatch_t, ptr %157, i32 0, i32 1
  %159 = load i32, ptr %158, align 4
  %160 = sext i32 %159 to i64
  %161 = getelementptr inbounds i8, ptr %156, i64 %160
  %162 = load ptr, ptr %12, align 8
  store ptr %161, ptr %162, align 8
  store i32 0, ptr %7, align 4
  store i32 1, ptr %18, align 4
  br label %163

163:                                              ; preds = %155, %42
  call void @llvm.lifetime.end.p0(i64 4, ptr %17) #9
  call void @llvm.lifetime.end.p0(i64 1, ptr %16) #9
  call void @llvm.lifetime.end.p0(i64 64, ptr %15) #9
  call void @llvm.lifetime.end.p0(i64 8, ptr %14) #9
  %164 = load i32, ptr %7, align 4
  ret i32 %164
}