; Function Attrs: nounwind uwtable
define internal fastcc range(i32 -1, 1) i32 @_keyvalue_regex(ptr noundef %0, ptr noundef %1, ptr noundef nonnull writeonly captures(none) initializes((0, 8)) %2, ptr noundef nonnull writeonly captures(none) initializes((0, 8)) %3, ptr noundef nonnull writeonly captures(none) initializes((0, 8)) %4, ptr noundef nonnull writeonly captures(none) initializes((0, 4)) %5) unnamed_addr #0 {
  %7 = alloca [8 x %struct.regmatch_t], align 16
  call void @llvm.lifetime.start.p0(i64 64, ptr nonnull %7) #13
  store ptr null, ptr %2, align 8
  store ptr null, ptr %3, align 8
  store ptr %1, ptr %4, align 8
  store i32 0, ptr %5, align 4
  call void @llvm.memset.p0.i64(ptr noundef nonnull align 16 dereferenceable(64) %7, i8 0, i64 64, i1 false)
  %8 = call i32 @regexec(ptr noundef %0, ptr noundef %1, i64 noundef 8, ptr noundef nonnull %7, i32 noundef 0) #13
  switch i32 %8, label %9 [
    i32 0, label %10
    i32 1, label %59
  ]

9:                                                ; preds = %6
  call void (i32, ptr, ptr, ...) @dump_regex_error(i32 noundef %8, ptr noundef %0, ptr noundef nonnull @.str.34, ptr noundef %1) #13
  br label %59

10:                                               ; preds = %6
  %11 = getelementptr inbounds nuw i8, ptr %7, i64 8
  %12 = load i32, ptr %11, align 8
  %13 = sext i32 %12 to i64
  %14 = getelementptr inbounds i8, ptr %1, i64 %13
  %15 = getelementptr inbounds nuw i8, ptr %7, i64 12
  %16 = load i32, ptr %15, align 4
  %17 = sub nsw i32 %16, %12
  %18 = sext i32 %17 to i64
  %19 = call ptr @xstrndup(ptr noundef %14, i64 noundef %18) #13
  store ptr %19, ptr %2, align 8
  %20 = getelementptr inbounds nuw i8, ptr %7, i64 16
  %21 = load i32, ptr %20, align 16
  %.not36 = icmp eq i32 %21, -1
  %22 = getelementptr inbounds nuw i8, ptr %7, i64 20
  %23 = load i32, ptr %22, align 4
  %.not37 = icmp eq i32 %21, %23
  %or.cond = select i1 %.not36, i1 true, i1 %.not37
  br i1 %or.cond, label %30, label %24

24:                                               ; preds = %10
  %25 = sext i32 %21 to i64
  %26 = getelementptr inbounds i8, ptr %1, i64 %25
  %27 = load i8, ptr %26, align 1
  %switch.tableidx = add i8 %27, -42
  %28 = icmp ult i8 %switch.tableidx, 6
  br i1 %28, label %switch.hole_check, label %30

switch.hole_check:                                ; preds = %24
  %switch.shifted = lshr i8 43, %switch.tableidx
  %switch.lobit = trunc i8 %switch.shifted to i1
  br i1 %switch.lobit, label %switch.lookup, label %30

switch.lookup:                                    ; preds = %switch.hole_check
  %29 = zext nneg i8 %switch.tableidx to i64
  %switch.gep = getelementptr inbounds nuw [6 x i32], ptr @switch.table._keyvalue_regex, i64 0, i64 %29
  %switch.load = load i32, ptr %switch.gep, align 4
  store i32 %switch.load, ptr %5, align 4
  br label %30

30:                                               ; preds = %switch.hole_check, %24, %switch.lookup, %10
  %31 = getelementptr inbounds nuw i8, ptr %7, i64 40
  %32 = load i32, ptr %31, align 8
  %.not38 = icmp eq i32 %32, -1
  br i1 %.not38, label %41, label %33

33:                                               ; preds = %30
  %34 = sext i32 %32 to i64
  %35 = getelementptr inbounds i8, ptr %1, i64 %34
  %36 = getelementptr inbounds nuw i8, ptr %7, i64 44
  %37 = load i32, ptr %36, align 4
  %38 = sub nsw i32 %37, %32
  %39 = sext i32 %38 to i64
  %40 = call ptr @xstrndup(ptr noundef %35, i64 noundef %39) #13
  br label %54

41:                                               ; preds = %30
  %42 = getelementptr inbounds nuw i8, ptr %7, i64 48
  %43 = load i32, ptr %42, align 16
  %.not39 = icmp eq i32 %43, -1
  br i1 %.not39, label %52, label %44

44:                                               ; preds = %41
  %45 = sext i32 %43 to i64
  %46 = getelementptr inbounds i8, ptr %1, i64 %45
  %47 = getelementptr inbounds nuw i8, ptr %7, i64 52
  %48 = load i32, ptr %47, align 4
  %49 = sub nsw i32 %48, %43
  %50 = sext i32 %49 to i64
  %51 = call ptr @xstrndup(ptr noundef %46, i64 noundef %50) #13
  br label %54

52:                                               ; preds = %41
  %53 = call ptr @xstrdup(ptr noundef nonnull @.str.35) #13
  br label %54

54:                                               ; preds = %44, %52, %33
  %.sink42 = phi ptr [ %51, %44 ], [ %53, %52 ], [ %40, %33 ]
  store ptr %.sink42, ptr %3, align 8
  %55 = getelementptr inbounds nuw i8, ptr %7, i64 28
  %56 = load i32, ptr %55, align 4
  %57 = sext i32 %56 to i64
  %58 = getelementptr inbounds i8, ptr %1, i64 %57
  store ptr %58, ptr %4, align 8
  br label %59

59:                                               ; preds = %9, %6, %54
  %.0 = phi i32 [ 0, %54 ], [ -1, %6 ], [ -1, %9 ]
  call void @llvm.lifetime.end.p0(i64 64, ptr nonnull %7) #13
  ret i32 %.0
}